target datalayout = "e-m:e-p270:32:32-p271:32:32-p272:64:64-i64:64-i128:128-f80:128-n8:16:32:64-S128"
target triple = "x86_64-pc-linux-gnu"

%class.ErrorHandler = type <{ i32, i32, i8, i8, i8, i8, i8, i8, [2 x i8] }>
%class.File = type { ptr, i64, i8, i32, i8, i8, i32, i8, i8, i8, i8, i8, i64, i8, [2048 x i32], i32, ptr }

@ErrHandler = external global %class.ErrorHandler, align 4

; Function Attrs: mustprogress uwtable
define void @_ZN4File4SeekEli(ptr noundef nonnull align 8 dereferenceable(8256) %0, i64 noundef %1, i32 noundef %2) unnamed_addr #1 align 2 {
  %4 = alloca ptr, align 8
  %5 = alloca i64, align 8
  %6 = alloca i32, align 4
  store ptr %0, ptr %4, align 8
  store i64 %1, ptr %5, align 8
  store i32 %2, ptr %6, align 4
  %7 = load ptr, ptr %4, align 8
  %8 = load i64, ptr %5, align 8
  %9 = load i32, ptr %6, align 4
  %10 = call noundef zeroext i1 @_ZN4File7RawSeekEli(ptr noundef nonnull align 8 dereferenceable(8256) %7, i64 noundef %8, i32 noundef %9)
  br i1 %10, label %18, label %11

11:                                               ; preds = %3
  %12 = getelementptr inbounds %class.File, ptr %7, i32 0, i32 9
  %13 = load i8, ptr %12, align 2
  %14 = trunc i8 %13 to i1
  br i1 %14, label %15, label %18

15:                                               ; preds = %11
  %16 = getelementptr inbounds %class.File, ptr %7, i32 0, i32 14
  %17 = getelementptr inbounds [2048 x i32], ptr %16, i64 0, i64 0
  call void @_ZN12ErrorHandler9SeekErrorEPKw(ptr noundef nonnull align 4 dereferenceable(14) @ErrHandler, ptr noundef %17)
  br label %18

18:                                               ; preds = %15, %11, %3
  ret void
}