; Function Attrs: mustprogress uwtable
define void @_ZN4File4SeekEli(ptr noundef nonnull align 8 dereferenceable(8256) %0, i64 noundef %1, i32 noundef %2) unnamed_addr #2 align 2 {
  %4 = tail call noundef zeroext i1 @_ZN4File7RawSeekEli(ptr noundef nonnull align 8 dereferenceable(8256) %0, i64 noundef %1, i32 noundef %2)
  br i1 %4, label %11, label %5

5:                                                ; preds = %3
  %6 = getelementptr inbounds i8, ptr %0, i64 34
  %7 = load i8, ptr %6, align 2
  %8 = trunc i8 %7 to i1
  br i1 %8, label %9, label %11

9:                                                ; preds = %5
  %10 = getelementptr inbounds i8, ptr %0, i64 52
  tail call void @_ZN12ErrorHandler9SeekErrorEPKw(ptr noundef nonnull align 4 dereferenceable(14) @ErrHandler, ptr noundef nonnull %10)
  br label %11

11:                                               ; preds = %9, %5, %3
  ret void
}